target datalayout = "e-m:e-p270:32:32-p271:32:32-p272:64:64-i64:64-i128:128-f80:128-n8:16:32:64-S128"
target triple = "x86_64-pc-linux-gnu"

%struct.pointf_s = type { double, double }
%struct.agxbuf = type { %union.anon.2 }
%union.anon.2 = type { %struct.anon }
%struct.anon = type { ptr, i64, i64, [7 x i8], i8 }
%struct.boxf = type { %struct.pointf_s, %struct.pointf_s }
%struct.GVJ_s = type { ptr, ptr, ptr, ptr, ptr, ptr, i32, ptr, ptr, ptr, ptr, i64, i64, ptr, i32, %struct.gvplugin_active_render_s, %struct.gvplugin_active_device_s, %struct.gvplugin_active_loadimage_t, ptr, %struct.pointf_s, i8, ptr, i32, ptr, i8, ptr, i32, i32, i32, %struct.point, %struct.point, %struct.point, %struct.point, %struct.point, i32, %struct.boxf, %struct.pointf_s, %struct.boxf, %struct.boxf, %struct.pointf_s, %struct.pointf_s, double, i32, %struct.pointf_s, %struct.boxf, %struct.pointf_s, %struct.pointf_s, i32, i32, %struct.box, %struct.box, %struct.pointf_s, %struct.pointf_s, %struct.pointf_s, i8, i8, i8, i8, i8, i8, %struct.pointf_s, %struct.pointf_s, ptr, ptr, ptr, ptr, ptr, ptr, i64, ptr }
%struct.gvplugin_active_render_s = type { ptr, i32, ptr, ptr }
%struct.gvplugin_active_device_s = type { ptr, i32, ptr, ptr }
%struct.gvplugin_active_loadimage_t = type { ptr, i32, ptr }
%struct.point = type { i32, i32 }
%struct.box = type { %struct.point, %struct.point }
%struct.obj_state_s = type { ptr, i32, %union.anon, i32, %struct.color_s, %struct.color_s, %struct.color_s, i32, double, i32, i32, double, ptr, double, double, double, ptr, ptr, ptr, ptr, ptr, ptr, ptr, ptr, ptr, ptr, ptr, ptr, ptr, ptr, ptr, ptr, ptr, i16, i32, i64, ptr, i64, ptr, ptr, i32, ptr, i32, ptr }
%union.anon = type { ptr }
%struct.color_s = type { %union.anon.0, i32 }
%union.anon.0 = type { [4 x double] }
%struct.xdot_state_t = type { ptr, ptr, ptr, ptr, ptr, ptr, ptr, ptr, ptr, ptr, i16, ptr, double }
%struct.Agobj_s = type { %struct.Agtag_s, ptr }
%struct.Agtag_s = type { i32, i64 }
%struct.Agraphinfo_t = type { %struct.Agrec_s, ptr, ptr, %struct.boxf, [4 x %struct.pointf_s], i8, i8, i8, i8, i32, double, double, i16, ptr, ptr, ptr, ptr, i32, ptr, ptr, ptr, ptr, i16, i16, i32, ptr, ptr, ptr, ptr, ptr, i32, ptr, ptr, %struct.nlist_t, ptr, ptr, i32, i32, i8, i8, i32, i32, i32, ptr, ptr, ptr, ptr, i8, i8, i8, i8, i8 }
%struct.Agrec_s = type { ptr, ptr }
%struct.nlist_t = type { ptr, i64 }

@xd = internal global ptr null, align 8
@textflags = internal global [12 x i32] zeroinitializer, align 16

; Function Attrs: inlinehint nounwind uwtable
define internal i64 @agxbsizeof(ptr noundef %0) #2 {
  %2 = alloca i64, align 8
  %3 = alloca ptr, align 8
  store ptr %0, ptr %3, align 8, !tbaa !41
  %4 = load ptr, ptr %3, align 8, !tbaa !41
  %5 = call zeroext i1 @agxbuf_is_inline(ptr noundef %4)
  br i1 %5, label %6, label %7

6:                                                ; preds = %1
  store i64 31, ptr %2, align 8
  br label %12

7:                                                ; preds = %1
  %8 = load ptr, ptr %3, align 8, !tbaa !41
  %9 = getelementptr inbounds nuw %struct.agxbuf, ptr %8, i32 0, i32 0
  %10 = getelementptr inbounds nuw %struct.anon, ptr %9, i32 0, i32 2
  %11 = load i64, ptr %10, align 8, !tbaa !59
  store i64 %11, ptr %2, align 8
  br label %12

12:                                               ; preds = %7, %6
  %13 = load i64, ptr %2, align 8
  ret i64 %13
}

; Function Attrs: inlinehint nounwind uwtable
define internal ptr @agxbstart(ptr noundef %0) #2 {
  %2 = alloca ptr, align 8
  store ptr %0, ptr %2, align 8, !tbaa !41
  %3 = load ptr, ptr %2, align 8, !tbaa !41
  %4 = call zeroext i1 @agxbuf_is_inline(ptr noundef %3)
  br i1 %4, label %5, label %9

5:                                                ; preds = %1
  %6 = load ptr, ptr %2, align 8, !tbaa !41
  %7 = getelementptr inbounds nuw %struct.agxbuf, ptr %6, i32 0, i32 0
  %8 = getelementptr inbounds [31 x i8], ptr %7, i64 0, i64 0
  br label %14

9:                                                ; preds = %1
  %10 = load ptr, ptr %2, align 8, !tbaa !41
  %11 = getelementptr inbounds nuw %struct.agxbuf, ptr %10, i32 0, i32 0
  %12 = getelementptr inbounds nuw %struct.anon, ptr %11, i32 0, i32 0
  %13 = load ptr, ptr %12, align 8, !tbaa !59
  br label %14

14:                                               ; preds = %9, %5
  %15 = phi ptr [ %8, %5 ], [ %13, %9 ]
  ret ptr %15
}

; Function Attrs: inlinehint nounwind uwtable
define internal void @agxbclear(ptr noundef %0) #2 {
  %2 = alloca ptr, align 8
  store ptr %0, ptr %2, align 8, !tbaa !41
  %3 = load ptr, ptr %2, align 8, !tbaa !41
  %4 = call zeroext i1 @agxbuf_is_inline(ptr noundef %3)
  br i1 %4, label %5, label %9

5:                                                ; preds = %1
  %6 = load ptr, ptr %2, align 8, !tbaa !41
  %7 = getelementptr inbounds nuw %struct.agxbuf, ptr %6, i32 0, i32 0
  %8 = getelementptr inbounds nuw %struct.anon, ptr %7, i32 0, i32 4
  store i8 0, ptr %8, align 1, !tbaa !59
  br label %13

9:                                                ; preds = %1
  %10 = load ptr, ptr %2, align 8, !tbaa !41
  %11 = getelementptr inbounds nuw %struct.agxbuf, ptr %10, i32 0, i32 0
  %12 = getelementptr inbounds nuw %struct.anon, ptr %11, i32 0, i32 1
  store i64 0, ptr %12, align 8, !tbaa !59
  br label %13

13:                                               ; preds = %9, %5
  ret void
}

; Function Attrs: inlinehint nounwind uwtable
define internal i32 @agxbputc(ptr noundef %0, i8 noundef signext %1) #2 {
  %3 = alloca ptr, align 8
  %4 = alloca i8, align 1
  %5 = alloca i64, align 8
  store ptr %0, ptr %3, align 8, !tbaa !41
  store i8 %1, ptr %4, align 1, !tbaa !59
  %6 = load ptr, ptr %3, align 8, !tbaa !41
  %7 = call i64 @agxblen(ptr noundef %6)
  %8 = load ptr, ptr %3, align 8, !tbaa !41
  %9 = call i64 @agxbsizeof(ptr noundef %8)
  %10 = icmp uge i64 %7, %9
  br i1 %10, label %11, label %13

11:                                               ; preds = %2
  %12 = load ptr, ptr %3, align 8, !tbaa !41
  call void @agxbmore(ptr noundef %12, i64 noundef 1)
  br label %13

13:                                               ; preds = %11, %2
  call void @llvm.lifetime.start.p0(i64 8, ptr %5) #14
  %14 = load ptr, ptr %3, align 8, !tbaa !41
  %15 = call i64 @agxblen(ptr noundef %14)
  store i64 %15, ptr %5, align 8, !tbaa !51
  %16 = load ptr, ptr %3, align 8, !tbaa !41
  %17 = call zeroext i1 @agxbuf_is_inline(ptr noundef %16)
  br i1 %17, label %18, label %29

18:                                               ; preds = %13
  %19 = load i8, ptr %4, align 1, !tbaa !59
  %20 = load ptr, ptr %3, align 8, !tbaa !41
  %21 = getelementptr inbounds nuw %struct.agxbuf, ptr %20, i32 0, i32 0
  %22 = load i64, ptr %5, align 8, !tbaa !51
  %23 = getelementptr inbounds nuw [31 x i8], ptr %21, i64 0, i64 %22
  store i8 %19, ptr %23, align 1, !tbaa !59
  %24 = load ptr, ptr %3, align 8, !tbaa !41
  %25 = getelementptr inbounds nuw %struct.agxbuf, ptr %24, i32 0, i32 0
  %26 = getelementptr inbounds nuw %struct.anon, ptr %25, i32 0, i32 4
  %27 = load i8, ptr %26, align 1, !tbaa !59
  %28 = add i8 %27, 1
  store i8 %28, ptr %26, align 1, !tbaa !59
  br label %42

29:                                               ; preds = %13
  %30 = load i8, ptr %4, align 1, !tbaa !59
  %31 = load ptr, ptr %3, align 8, !tbaa !41
  %32 = getelementptr inbounds nuw %struct.agxbuf, ptr %31, i32 0, i32 0
  %33 = getelementptr inbounds nuw %struct.anon, ptr %32, i32 0, i32 0
  %34 = load ptr, ptr %33, align 8, !tbaa !59
  %35 = load i64, ptr %5, align 8, !tbaa !51
  %36 = getelementptr inbounds nuw i8, ptr %34, i64 %35
  store i8 %30, ptr %36, align 1, !tbaa !59
  %37 = load ptr, ptr %3, align 8, !tbaa !41
  %38 = getelementptr inbounds nuw %struct.agxbuf, ptr %37, i32 0, i32 0
  %39 = getelementptr inbounds nuw %struct.anon, ptr %38, i32 0, i32 1
  %40 = load i64, ptr %39, align 8, !tbaa !59
  %41 = add i64 %40, 1
  store i64 %41, ptr %39, align 8, !tbaa !59
  br label %42

42:                                               ; preds = %29, %18
  call void @llvm.lifetime.end.p0(i64 8, ptr %5) #14
  ret i32 0
}

; Function Attrs: inlinehint nounwind uwtable
define internal i64 @agxblen(ptr noundef %0) #2 {
  %2 = alloca i64, align 8
  %3 = alloca ptr, align 8
  store ptr %0, ptr %3, align 8, !tbaa !41
  %4 = load ptr, ptr %3, align 8, !tbaa !41
  %5 = call zeroext i1 @agxbuf_is_inline(ptr noundef %4)
  br i1 %5, label %6, label %14

6:                                                ; preds = %1
  %7 = load ptr, ptr %3, align 8, !tbaa !41
  %8 = getelementptr inbounds nuw %struct.agxbuf, ptr %7, i32 0, i32 0
  %9 = getelementptr inbounds nuw %struct.anon, ptr %8, i32 0, i32 4
  %10 = load i8, ptr %9, align 1, !tbaa !59
  %11 = zext i8 %10 to i32
  %12 = sub nsw i32 %11, 0
  %13 = sext i32 %12 to i64
  store i64 %13, ptr %2, align 8
  br label %19

14:                                               ; preds = %1
  %15 = load ptr, ptr %3, align 8, !tbaa !41
  %16 = getelementptr inbounds nuw %struct.agxbuf, ptr %15, i32 0, i32 0
  %17 = getelementptr inbounds nuw %struct.anon, ptr %16, i32 0, i32 1
  %18 = load i64, ptr %17, align 8, !tbaa !59
  store i64 %18, ptr %2, align 8
  br label %19

19:                                               ; preds = %14, %6
  %20 = load i64, ptr %2, align 8
  ret i64 %20
}

; Function Attrs: inlinehint nounwind uwtable
define internal zeroext i1 @agxbuf_is_inline(ptr noundef %0) #2 {
  %2 = alloca ptr, align 8
  store ptr %0, ptr %2, align 8, !tbaa !41
  %3 = load ptr, ptr %2, align 8, !tbaa !41
  %4 = getelementptr inbounds nuw %struct.agxbuf, ptr %3, i32 0, i32 0
  %5 = getelementptr inbounds nuw %struct.anon, ptr %4, i32 0, i32 4
  %6 = load i8, ptr %5, align 1, !tbaa !59
  %7 = zext i8 %6 to i32
  %8 = icmp slt i32 %7, 255
  ret i1 %8
}

; Function Attrs: inlinehint nounwind uwtable
define internal ptr @agxbuse(ptr noundef %0) #2 {
  %2 = alloca ptr, align 8
  store ptr %0, ptr %2, align 8, !tbaa !41
  %3 = load ptr, ptr %2, align 8, !tbaa !41
  %4 = call zeroext i1 @agxbuf_is_inline(ptr noundef %3)
  br i1 %4, label %5, label %9

5:                                                ; preds = %1
  %6 = load ptr, ptr %2, align 8, !tbaa !41
  %7 = call i64 @agxblen(ptr noundef %6)
  %8 = icmp ne i64 %7, 31
  br i1 %8, label %9, label %12

9:                                                ; preds = %5, %1
  %10 = load ptr, ptr %2, align 8, !tbaa !41
  %11 = call i32 @agxbputc(ptr noundef %10, i8 noundef signext 0)
  br label %13

12:                                               ; preds = %5
  br label %13

13:                                               ; preds = %12, %9
  %14 = load ptr, ptr %2, align 8, !tbaa !41
  call void @agxbclear(ptr noundef %14)
  %15 = load ptr, ptr %2, align 8, !tbaa !41
  %16 = call ptr @agxbstart(ptr noundef %15)
  ret ptr %16
}

; Function Attrs: nounwind uwtable
define internal void @xdot_end_cluster(ptr noundef %0) #0 {
  %2 = alloca ptr, align 8
  %3 = alloca ptr, align 8
  store ptr %0, ptr %2, align 8, !tbaa !3
  call void @llvm.lifetime.start.p0(i64 8, ptr %3) #14
  %4 = load ptr, ptr %2, align 8, !tbaa !3
  %5 = getelementptr inbounds nuw %struct.GVJ_s, ptr %4, i32 0, i32 4
  %6 = load ptr, ptr %5, align 8, !tbaa !12
  %7 = getelementptr inbounds nuw %struct.obj_state_s, ptr %6, i32 0, i32 2
  %8 = load ptr, ptr %7, align 8, !tbaa !59
  store ptr %8, ptr %3, align 8, !tbaa !60
  %9 = load ptr, ptr %3, align 8, !tbaa !60
  %10 = load ptr, ptr @xd, align 8, !tbaa !41
  %11 = getelementptr inbounds nuw %struct.xdot_state_t, ptr %10, i32 0, i32 0
  %12 = load ptr, ptr %11, align 8, !tbaa !88
  %13 = load ptr, ptr getelementptr inbounds ([12 x ptr], ptr @xbufs, i64 0, i64 1), align 8, !tbaa !41
  %14 = call ptr @agxbuse(ptr noundef %13)
  %15 = call i32 @agxset(ptr noundef %9, ptr noundef %12, ptr noundef %14)
  %16 = load ptr, ptr %3, align 8, !tbaa !60
  %17 = getelementptr inbounds nuw %struct.Agobj_s, ptr %16, i32 0, i32 1
  %18 = load ptr, ptr %17, align 8, !tbaa !89
  %19 = getelementptr inbounds nuw %struct.Agraphinfo_t, ptr %18, i32 0, i32 2
  %20 = load ptr, ptr %19, align 8, !tbaa !90
  %21 = icmp ne ptr %20, null
  br i1 %21, label %22, label %30

22:                                               ; preds = %1
  %23 = load ptr, ptr %3, align 8, !tbaa !60
  %24 = load ptr, ptr @xd, align 8, !tbaa !41
  %25 = getelementptr inbounds nuw %struct.xdot_state_t, ptr %24, i32 0, i32 1
  %26 = load ptr, ptr %25, align 8, !tbaa !102
  %27 = load ptr, ptr getelementptr inbounds ([12 x ptr], ptr @xbufs, i64 0, i64 5), align 8, !tbaa !41
  %28 = call ptr @agxbuse(ptr noundef %27)
  %29 = call i32 @agxset(ptr noundef %23, ptr noundef %26, ptr noundef %28)
  br label %30

30:                                               ; preds = %22, %1
  store double 1.000000e+00, ptr getelementptr inbounds ([12 x double], ptr @penwidth, i64 0, i64 1), align 8, !tbaa !58
  store double 1.000000e+00, ptr getelementptr inbounds ([12 x double], ptr @penwidth, i64 0, i64 5), align 8, !tbaa !58
  store i32 0, ptr getelementptr inbounds ([12 x i32], ptr @textflags, i64 0, i64 1), align 4, !tbaa !40
  store i32 0, ptr getelementptr inbounds ([12 x i32], ptr @textflags, i64 0, i64 5), align 4, !tbaa !40
  call void @llvm.lifetime.end.p0(i64 8, ptr %3) #14
  ret void
}