; Function Attrs: nounwind uwtable
define internal void @xdot_end_cluster(ptr noundef readonly captures(none) %0) #0 {
  %2 = getelementptr inbounds nuw i8, ptr %0, i64 32
  %3 = load ptr, ptr %2, align 8, !tbaa !3
  %4 = getelementptr inbounds nuw i8, ptr %3, i64 16
  %5 = load ptr, ptr %4, align 8, !tbaa !37
  %6 = load ptr, ptr @xd, align 8, !tbaa !36
  %7 = load ptr, ptr %6, align 8, !tbaa !74
  %.val.i = load i8, ptr getelementptr inbounds nuw (i8, ptr @xbuf, i64 63), align 1, !tbaa !37
  switch i8 %.val.i, label %agxblen.exit.i.i [
    i8 -1, label %9
    i8 31, label %agxbclear.exit.thread.i
  ]

agxblen.exit.i.i:                                 ; preds = %1
  %8 = zext i8 %.val.i to i64
  br label %agxbsizeof.exit.i.i

9:                                                ; preds = %1
  %10 = load i64, ptr getelementptr inbounds nuw (i8, ptr @xbuf, i64 40), align 8, !tbaa !37
  %11 = load i64, ptr getelementptr inbounds nuw (i8, ptr @xbuf, i64 48), align 16, !tbaa !37
  br label %agxbsizeof.exit.i.i

agxbsizeof.exit.i.i:                              ; preds = %9, %agxblen.exit.i.i
  %.0.i20.i.i = phi i64 [ %10, %9 ], [ %8, %agxblen.exit.i.i ]
  %.0.i14.i.i = phi i64 [ %11, %9 ], [ 31, %agxblen.exit.i.i ]
  %.not.i5.i = icmp ult i64 %.0.i20.i.i, %.0.i14.i.i
  br i1 %.not.i5.i, label %13, label %12

12:                                               ; preds = %agxbsizeof.exit.i.i
  tail call fastcc void @agxbmore(ptr noundef nonnull getelementptr inbounds nuw (i8, ptr @xbuf, i64 32), i64 noundef 1)
  %.val.i15.pre.i.i = load i8, ptr getelementptr inbounds nuw (i8, ptr @xbuf, i64 63), align 1, !tbaa !37
  br label %13

13:                                               ; preds = %12, %agxbsizeof.exit.i.i
  %.val.i15.i.i = phi i8 [ %.val.i15.pre.i.i, %12 ], [ %.val.i, %agxbsizeof.exit.i.i ]
  %.not.i16.i.i = icmp eq i8 %.val.i15.i.i, -1
  br i1 %.not.i16.i.i, label %19, label %14

14:                                               ; preds = %13
  %15 = zext i8 %.val.i15.i.i to i64
  %16 = getelementptr inbounds nuw [31 x i8], ptr getelementptr inbounds nuw (i8, ptr @xbuf, i64 32), i64 0, i64 %15
  store i8 0, ptr %16, align 1, !tbaa !37
  %17 = load i8, ptr getelementptr inbounds nuw (i8, ptr @xbuf, i64 63), align 1, !tbaa !37
  %18 = add i8 %17, 1
  store i8 %18, ptr getelementptr inbounds nuw (i8, ptr @xbuf, i64 63), align 1, !tbaa !37
  br label %agxbputc.exit.i

19:                                               ; preds = %13
  %20 = load i64, ptr getelementptr inbounds nuw (i8, ptr @xbuf, i64 40), align 8, !tbaa !37
  %21 = load ptr, ptr getelementptr inbounds nuw (i8, ptr @xbuf, i64 32), align 16, !tbaa !37
  %22 = getelementptr inbounds nuw i8, ptr %21, i64 %20
  store i8 0, ptr %22, align 1, !tbaa !37
  %23 = load i64, ptr getelementptr inbounds nuw (i8, ptr @xbuf, i64 40), align 8, !tbaa !37
  %24 = add i64 %23, 1
  store i64 %24, ptr getelementptr inbounds nuw (i8, ptr @xbuf, i64 40), align 8, !tbaa !37
  %.val.i6.pr.i = load i8, ptr getelementptr inbounds nuw (i8, ptr @xbuf, i64 63), align 1, !tbaa !37
  br label %agxbputc.exit.i

agxbputc.exit.i:                                  ; preds = %19, %14
  %.val.i8.pr.i = phi i8 [ %.val.i6.pr.i, %19 ], [ %18, %14 ]
  %.not.i7.i = icmp eq i8 %.val.i8.pr.i, -1
  br i1 %.not.i7.i, label %25, label %agxbclear.exit.thread.i

agxbclear.exit.thread.i:                          ; preds = %agxbputc.exit.i, %1
  store i8 0, ptr getelementptr inbounds nuw (i8, ptr @xbuf, i64 63), align 1, !tbaa !37
  br label %agxbuse.exit

25:                                               ; preds = %agxbputc.exit.i
  store i64 0, ptr getelementptr inbounds nuw (i8, ptr @xbuf, i64 40), align 8, !tbaa !37
  %26 = load ptr, ptr getelementptr inbounds nuw (i8, ptr @xbuf, i64 32), align 16, !tbaa !37
  br label %agxbuse.exit

agxbuse.exit:                                     ; preds = %agxbclear.exit.thread.i, %25
  %27 = phi ptr [ %26, %25 ], [ getelementptr inbounds nuw (i8, ptr @xbuf, i64 32), %agxbclear.exit.thread.i ]
  %28 = tail call i32 @agxset(ptr noundef %5, ptr noundef %7, ptr noundef %27) #18
  %29 = getelementptr inbounds nuw i8, ptr %5, i64 16
  %30 = load ptr, ptr %29, align 8, !tbaa !57
  %31 = getelementptr inbounds nuw i8, ptr %30, i64 24
  %32 = load ptr, ptr %31, align 8, !tbaa !103
  %.not = icmp eq ptr %32, null
  br i1 %.not, label %58, label %33

33:                                               ; preds = %agxbuse.exit
  %34 = load ptr, ptr @xd, align 8, !tbaa !36
  %35 = getelementptr inbounds nuw i8, ptr %34, i64 8
  %36 = load ptr, ptr %35, align 8, !tbaa !76
  %.val.i4 = load i8, ptr getelementptr inbounds nuw (i8, ptr @xbuf, i64 191), align 1, !tbaa !37
  switch i8 %.val.i4, label %agxblen.exit.i.i17 [
    i8 -1, label %38
    i8 31, label %agxbclear.exit.thread.i5
  ]

agxblen.exit.i.i17:                               ; preds = %33
  %37 = zext i8 %.val.i4 to i64
  br label %agxbsizeof.exit.i.i6

38:                                               ; preds = %33
  %39 = load i64, ptr getelementptr inbounds nuw (i8, ptr @xbuf, i64 168), align 8, !tbaa !37
  %40 = load i64, ptr getelementptr inbounds nuw (i8, ptr @xbuf, i64 176), align 16, !tbaa !37
  br label %agxbsizeof.exit.i.i6

agxbsizeof.exit.i.i6:                             ; preds = %38, %agxblen.exit.i.i17
  %.0.i20.i.i7 = phi i64 [ %39, %38 ], [ %37, %agxblen.exit.i.i17 ]
  %.0.i14.i.i8 = phi i64 [ %40, %38 ], [ 31, %agxblen.exit.i.i17 ]
  %.not.i5.i9 = icmp ult i64 %.0.i20.i.i7, %.0.i14.i.i8
  br i1 %.not.i5.i9, label %42, label %41

41:                                               ; preds = %agxbsizeof.exit.i.i6
  tail call fastcc void @agxbmore(ptr noundef nonnull getelementptr inbounds nuw (i8, ptr @xbuf, i64 160), i64 noundef 1)
  %.val.i15.pre.i.i10 = load i8, ptr getelementptr inbounds nuw (i8, ptr @xbuf, i64 191), align 1, !tbaa !37
  br label %42

42:                                               ; preds = %41, %agxbsizeof.exit.i.i6
  %.val.i15.i.i11 = phi i8 [ %.val.i15.pre.i.i10, %41 ], [ %.val.i4, %agxbsizeof.exit.i.i6 ]
  %.not.i16.i.i12 = icmp eq i8 %.val.i15.i.i11, -1
  br i1 %.not.i16.i.i12, label %48, label %43

43:                                               ; preds = %42
  %44 = zext i8 %.val.i15.i.i11 to i64
  %45 = getelementptr inbounds nuw [31 x i8], ptr getelementptr inbounds nuw (i8, ptr @xbuf, i64 160), i64 0, i64 %44
  store i8 0, ptr %45, align 1, !tbaa !37
  %46 = load i8, ptr getelementptr inbounds nuw (i8, ptr @xbuf, i64 191), align 1, !tbaa !37
  %47 = add i8 %46, 1
  store i8 %47, ptr getelementptr inbounds nuw (i8, ptr @xbuf, i64 191), align 1, !tbaa !37
  br label %agxbputc.exit.i13

48:                                               ; preds = %42
  %49 = load i64, ptr getelementptr inbounds nuw (i8, ptr @xbuf, i64 168), align 8, !tbaa !37
  %50 = load ptr, ptr getelementptr inbounds nuw (i8, ptr @xbuf, i64 160), align 16, !tbaa !37
  %51 = getelementptr inbounds nuw i8, ptr %50, i64 %49
  store i8 0, ptr %51, align 1, !tbaa !37
  %52 = load i64, ptr getelementptr inbounds nuw (i8, ptr @xbuf, i64 168), align 8, !tbaa !37
  %53 = add i64 %52, 1
  store i64 %53, ptr getelementptr inbounds nuw (i8, ptr @xbuf, i64 168), align 8, !tbaa !37
  %.val.i6.pr.i16 = load i8, ptr getelementptr inbounds nuw (i8, ptr @xbuf, i64 191), align 1, !tbaa !37
  br label %agxbputc.exit.i13

agxbputc.exit.i13:                                ; preds = %48, %43
  %.val.i8.pr.i14 = phi i8 [ %.val.i6.pr.i16, %48 ], [ %47, %43 ]
  %.not.i7.i15 = icmp eq i8 %.val.i8.pr.i14, -1
  br i1 %.not.i7.i15, label %54, label %agxbclear.exit.thread.i5

agxbclear.exit.thread.i5:                         ; preds = %agxbputc.exit.i13, %33
  store i8 0, ptr getelementptr inbounds nuw (i8, ptr @xbuf, i64 191), align 1, !tbaa !37
  br label %agxbuse.exit18

54:                                               ; preds = %agxbputc.exit.i13
  store i64 0, ptr getelementptr inbounds nuw (i8, ptr @xbuf, i64 168), align 8, !tbaa !37
  %55 = load ptr, ptr getelementptr inbounds nuw (i8, ptr @xbuf, i64 160), align 16, !tbaa !37
  br label %agxbuse.exit18

agxbuse.exit18:                                   ; preds = %agxbclear.exit.thread.i5, %54
  %56 = phi ptr [ %55, %54 ], [ getelementptr inbounds nuw (i8, ptr @xbuf, i64 160), %agxbclear.exit.thread.i5 ]
  %57 = tail call i32 @agxset(ptr noundef nonnull %5, ptr noundef %36, ptr noundef %56) #18
  br label %58

58:                                               ; preds = %agxbuse.exit18, %agxbuse.exit
  store double 1.000000e+00, ptr getelementptr inbounds nuw (i8, ptr @penwidth, i64 8), align 8, !tbaa !105
  store double 1.000000e+00, ptr getelementptr inbounds nuw (i8, ptr @penwidth, i64 40), align 8, !tbaa !105
  store i32 0, ptr getelementptr inbounds nuw (i8, ptr @textflags, i64 4), align 4, !tbaa !106
  store i32 0, ptr getelementptr inbounds nuw (i8, ptr @textflags, i64 20), align 4, !tbaa !106
  ret void
}